---
triple:          'arm64-apple-darwin'
binary-path:     '/Users/raymond/Downloads/CS/USACO/usaco/Silver/ArrayDivision'
relocations:
  - { offsetInCU: 0x463D, offset: 0x463D, size: 0x8, addend: 0x0, symName: __ZNSt3__122__make_exception_guardB8ue170006INS_6vectorImNS_9allocatorImEEE16__destroy_vectorEEENS_28__exception_guard_exceptionsIT_EES7_, symObjAddr: 0x484, symBinAddr: 0x100002E60, symSize: 0x40 }
  - { offsetInCU: 0x4672, offset: 0x4672, size: 0x8, addend: 0x0, symName: __ZNSt3__119__allocate_at_leastB8ue170006INS_9allocatorImEEEENS_19__allocation_resultINS_16allocator_traitsIT_E7pointerEEERS5_m, symObjAddr: 0x870, symBinAddr: 0x10000324C, symSize: 0x40 }
  - { offsetInCU: 0x46B5, offset: 0x46B5, size: 0x8, addend: 0x0, symName: __ZNSt3__13minB8ue170006ImEERKT_S3_S3_, symObjAddr: 0x9AC, symBinAddr: 0x100003388, symSize: 0x2C }
  - { offsetInCU: 0x48F9, offset: 0x48F9, size: 0x8, addend: 0x0, symName: __ZNSt3__13minB8ue170006ImNS_6__lessIvvEEEERKT_S5_S5_T0_, symObjAddr: 0xA44, symBinAddr: 0x100003420, symSize: 0x54 }
  - { offsetInCU: 0x4998, offset: 0x4998, size: 0x8, addend: 0x0, symName: __ZNSt3__120__throw_length_errorB8ue170006EPKc, symObjAddr: 0xB20, symBinAddr: 0x1000034FC, symSize: 0x64 }
  - { offsetInCU: 0x49C2, offset: 0x49C2, size: 0x8, addend: 0x0, symName: __ZNSt3__117__libcpp_allocateB8ue170006Emm, symObjAddr: 0xC90, symBinAddr: 0x10000366C, symSize: 0x28 }
  - { offsetInCU: 0x49FF, offset: 0x49FF, size: 0x8, addend: 0x0, symName: __ZNSt3__121__libcpp_operator_newB8ue170006IJmEEEPvDpT_, symObjAddr: 0xCB8, symBinAddr: 0x100003694, symSize: 0x24 }
  - { offsetInCU: 0x4A38, offset: 0x4A38, size: 0x8, addend: 0x0, symName: __ZNSt3__112__to_addressB8ue170006ImEEPT_S2_, symObjAddr: 0xDD4, symBinAddr: 0x1000037B0, symSize: 0x14 }
  - { offsetInCU: 0x4A6D, offset: 0x4A6D, size: 0x8, addend: 0x0, symName: __ZNSt3__119__libcpp_deallocateB8ue170006EPvmm, symObjAddr: 0x125C, symBinAddr: 0x100003C38, symSize: 0x30 }
  - { offsetInCU: 0x4AB5, offset: 0x4AB5, size: 0x8, addend: 0x0, symName: __ZNSt3__127__do_deallocate_handle_sizeB8ue170006IJEEEvPvmDpT_, symObjAddr: 0x128C, symBinAddr: 0x100003C68, symSize: 0x28 }
  - { offsetInCU: 0x4AF3, offset: 0x4AF3, size: 0x8, addend: 0x0, symName: __ZNSt3__124__libcpp_operator_deleteB8ue170006IJPvEEEvDpT_, symObjAddr: 0x12B4, symBinAddr: 0x100003C90, symSize: 0x24 }
  - { offsetInCU: 0x4DF2, offset: 0x4DF2, size: 0x8, addend: 0x0, symName: __ZSt28__throw_bad_array_new_lengthB8ue170006v, symObjAddr: 0xC5C, symBinAddr: 0x100003638, symSize: 0x34 }
  - { offsetInCU: 0x7632, offset: 0x7632, size: 0x8, addend: 0x0, symName: __Z8possibleRKNSt3__16vectorImNS_9allocatorImEEEEmm, symObjAddr: 0x0, symBinAddr: 0x1000029DC, symSize: 0x148 }
  - { offsetInCU: 0x76A4, offset: 0x76A4, size: 0x8, addend: 0x0, symName: __ZNKSt3__16vectorImNS_9allocatorImEEE4sizeB8ue170006Ev, symObjAddr: 0x148, symBinAddr: 0x100002B24, symSize: 0x28 }
  - { offsetInCU: 0x76C8, offset: 0x76C8, size: 0x8, addend: 0x0, symName: __ZNKSt3__16vectorImNS_9allocatorImEEEixB8ue170006Em, symObjAddr: 0x170, symBinAddr: 0x100002B4C, symSize: 0x24 }
  - { offsetInCU: 0x76FD, offset: 0x76FD, size: 0x8, addend: 0x0, symName: _main, symObjAddr: 0x194, symBinAddr: 0x100002B70, symSize: 0x15C }
  - { offsetInCU: 0x7795, offset: 0x7795, size: 0x8, addend: 0x0, symName: __ZNSt3__16vectorImNS_9allocatorImEEEC1Em, symObjAddr: 0x2F0, symBinAddr: 0x100002CCC, symSize: 0x34 }
  - { offsetInCU: 0x77CE, offset: 0x77CE, size: 0x8, addend: 0x0, symName: __ZNSt3__16vectorImNS_9allocatorImEEEixB8ue170006Em, symObjAddr: 0x324, symBinAddr: 0x100002D00, symSize: 0x24 }
  - { offsetInCU: 0x7803, offset: 0x7803, size: 0x8, addend: 0x0, symName: __ZNSt3__16vectorImNS_9allocatorImEEED1B8ue170006Ev, symObjAddr: 0x348, symBinAddr: 0x100002D24, symSize: 0x2C }
  - { offsetInCU: 0x782B, offset: 0x782B, size: 0x8, addend: 0x0, symName: __ZNSt3__16vectorImNS_9allocatorImEEEC2Em, symObjAddr: 0x374, symBinAddr: 0x100002D50, symSize: 0xD4 }
  - { offsetInCU: 0x7883, offset: 0x7883, size: 0x8, addend: 0x0, symName: __ZNSt3__117__compressed_pairIPmNS_9allocatorImEEEC1B8ue170006IDnNS_18__default_init_tagEEEOT_OT0_, symObjAddr: 0x448, symBinAddr: 0x100002E24, symSize: 0x3C }
  - { offsetInCU: 0x78D9, offset: 0x78D9, size: 0x8, addend: 0x0, symName: __ZNSt3__16vectorImNS_9allocatorImEEE16__destroy_vectorC1B8ue170006ERS3_, symObjAddr: 0x4C4, symBinAddr: 0x100002EA0, symSize: 0x34 }
  - { offsetInCU: 0x7910, offset: 0x7910, size: 0x8, addend: 0x0, symName: __ZNSt3__16vectorImNS_9allocatorImEEE11__vallocateB8ue170006Em, symObjAddr: 0x4F8, symBinAddr: 0x100002ED4, symSize: 0xAC }
  - { offsetInCU: 0x7952, offset: 0x7952, size: 0x8, addend: 0x0, symName: __ZNSt3__16vectorImNS_9allocatorImEEE18__construct_at_endEm, symObjAddr: 0x5A4, symBinAddr: 0x100002F80, symSize: 0xC8 }
  - { offsetInCU: 0x79C2, offset: 0x79C2, size: 0x8, addend: 0x0, symName: __ZNSt3__128__exception_guard_exceptionsINS_6vectorImNS_9allocatorImEEE16__destroy_vectorEE10__completeB8ue170006Ev, symObjAddr: 0x66C, symBinAddr: 0x100003048, symSize: 0x1C }
  - { offsetInCU: 0x79E6, offset: 0x79E6, size: 0x8, addend: 0x0, symName: __ZNSt3__128__exception_guard_exceptionsINS_6vectorImNS_9allocatorImEEE16__destroy_vectorEED1B8ue170006Ev, symObjAddr: 0x688, symBinAddr: 0x100003064, symSize: 0x2C }
  - { offsetInCU: 0x7A0E, offset: 0x7A0E, size: 0x8, addend: 0x0, symName: __ZNSt3__117__compressed_pairIPmNS_9allocatorImEEEC2B8ue170006IDnNS_18__default_init_tagEEEOT_OT0_, symObjAddr: 0x6B4, symBinAddr: 0x100003090, symSize: 0x40 }
  - { offsetInCU: 0x7A64, offset: 0x7A64, size: 0x8, addend: 0x0, symName: __ZNSt3__122__compressed_pair_elemIPmLi0ELb0EEC2B8ue170006IDnvEEOT_, symObjAddr: 0x6F4, symBinAddr: 0x1000030D0, symSize: 0x1C }
  - { offsetInCU: 0x7AA4, offset: 0x7AA4, size: 0x8, addend: 0x0, symName: __ZNSt3__122__compressed_pair_elemINS_9allocatorImEELi1ELb1EEC2B8ue170006ENS_18__default_init_tagE, symObjAddr: 0x710, symBinAddr: 0x1000030EC, symSize: 0x2C }
  - { offsetInCU: 0x7AD6, offset: 0x7AD6, size: 0x8, addend: 0x0, symName: __ZNSt3__19allocatorImEC2B8ue170006Ev, symObjAddr: 0x73C, symBinAddr: 0x100003118, symSize: 0x2C }
  - { offsetInCU: 0x7AFE, offset: 0x7AFE, size: 0x8, addend: 0x0, symName: __ZNSt3__116__non_trivial_ifILb1ENS_9allocatorImEEEC2B8ue170006Ev, symObjAddr: 0x768, symBinAddr: 0x100003144, symSize: 0x14 }
  - { offsetInCU: 0x7B26, offset: 0x7B26, size: 0x8, addend: 0x0, symName: __ZNSt3__128__exception_guard_exceptionsINS_6vectorImNS_9allocatorImEEE16__destroy_vectorEEC1B8ue170006ES5_, symObjAddr: 0x77C, symBinAddr: 0x100003158, symSize: 0x34 }
  - { offsetInCU: 0x7B5C, offset: 0x7B5C, size: 0x8, addend: 0x0, symName: __ZNSt3__128__exception_guard_exceptionsINS_6vectorImNS_9allocatorImEEE16__destroy_vectorEEC2B8ue170006ES5_, symObjAddr: 0x7B0, symBinAddr: 0x10000318C, symSize: 0x24 }
  - { offsetInCU: 0x7B92, offset: 0x7B92, size: 0x8, addend: 0x0, symName: __ZNSt3__16vectorImNS_9allocatorImEEE16__destroy_vectorC2B8ue170006ERS3_, symObjAddr: 0x7D4, symBinAddr: 0x1000031B0, symSize: 0x20 }
  - { offsetInCU: 0x7BC9, offset: 0x7BC9, size: 0x8, addend: 0x0, symName: __ZNKSt3__16vectorImNS_9allocatorImEEE8max_sizeEv, symObjAddr: 0x7F4, symBinAddr: 0x1000031D0, symSize: 0x60 }
  - { offsetInCU: 0x7BEF, offset: 0x7BEF, size: 0x8, addend: 0x0, symName: __ZNKSt3__16vectorImNS_9allocatorImEEE20__throw_length_errorB8ue170006Ev, symObjAddr: 0x854, symBinAddr: 0x100003230, symSize: 0x1C }
  - { offsetInCU: 0x7C13, offset: 0x7C13, size: 0x8, addend: 0x0, symName: __ZNSt3__16vectorImNS_9allocatorImEEE7__allocB8ue170006Ev, symObjAddr: 0x8B0, symBinAddr: 0x10000328C, symSize: 0x28 }
  - { offsetInCU: 0x7C37, offset: 0x7C37, size: 0x8, addend: 0x0, symName: __ZNSt3__16vectorImNS_9allocatorImEEE9__end_capB8ue170006Ev, symObjAddr: 0x8D8, symBinAddr: 0x1000032B4, symSize: 0x28 }
  - { offsetInCU: 0x7C5B, offset: 0x7C5B, size: 0x8, addend: 0x0, symName: __ZNKSt3__16vectorImNS_9allocatorImEEE14__annotate_newB8ue170006Em, symObjAddr: 0x900, symBinAddr: 0x1000032DC, symSize: 0xAC }
  - { offsetInCU: 0x7C98, offset: 0x7C98, size: 0x8, addend: 0x0, symName: __ZNSt3__116allocator_traitsINS_9allocatorImEEE8max_sizeB8ue170006IS2_vEEmRKS2_, symObjAddr: 0x9D8, symBinAddr: 0x1000033B4, symSize: 0x24 }
  - { offsetInCU: 0x7CC5, offset: 0x7CC5, size: 0x8, addend: 0x0, symName: __ZNKSt3__16vectorImNS_9allocatorImEEE7__allocB8ue170006Ev, symObjAddr: 0x9FC, symBinAddr: 0x1000033D8, symSize: 0x28 }
  - { offsetInCU: 0x7CE9, offset: 0x7CE9, size: 0x8, addend: 0x0, symName: __ZNSt3__114numeric_limitsIlE3maxB8ue170006Ev, symObjAddr: 0xA24, symBinAddr: 0x100003400, symSize: 0x14 }
  - { offsetInCU: 0x7D06, offset: 0x7D06, size: 0x8, addend: 0x0, symName: __ZNKSt3__16__lessIvvEclB8ue170006ImmEEbRKT_RKT0_, symObjAddr: 0xA98, symBinAddr: 0x100003474, symSize: 0x34 }
  - { offsetInCU: 0x7D58, offset: 0x7D58, size: 0x8, addend: 0x0, symName: __ZNKSt3__19allocatorImE8max_sizeB8ue170006Ev, symObjAddr: 0xACC, symBinAddr: 0x1000034A8, symSize: 0x14 }
  - { offsetInCU: 0x7D7C, offset: 0x7D7C, size: 0x8, addend: 0x0, symName: __ZNKSt3__117__compressed_pairIPmNS_9allocatorImEEE6secondB8ue170006Ev, symObjAddr: 0xAE0, symBinAddr: 0x1000034BC, symSize: 0x24 }
  - { offsetInCU: 0x7DA0, offset: 0x7DA0, size: 0x8, addend: 0x0, symName: __ZNKSt3__122__compressed_pair_elemINS_9allocatorImEELi1ELb1EE5__getB8ue170006Ev, symObjAddr: 0xB04, symBinAddr: 0x1000034E0, symSize: 0x14 }
  - { offsetInCU: 0x7DC4, offset: 0x7DC4, size: 0x8, addend: 0x0, symName: __ZNSt3__123__libcpp_numeric_limitsIlLb1EE3maxB8ue170006Ev, symObjAddr: 0xB18, symBinAddr: 0x1000034F4, symSize: 0x8 }
  - { offsetInCU: 0x7DD7, offset: 0x7DD7, size: 0x8, addend: 0x0, symName: __ZNSt12length_errorC1B8ue170006EPKc, symObjAddr: 0xB84, symBinAddr: 0x100003560, symSize: 0x34 }
  - { offsetInCU: 0x7E0D, offset: 0x7E0D, size: 0x8, addend: 0x0, symName: __ZNSt12length_errorC2B8ue170006EPKc, symObjAddr: 0xBB8, symBinAddr: 0x100003594, symSize: 0x4C }
  - { offsetInCU: 0x7E43, offset: 0x7E43, size: 0x8, addend: 0x0, symName: __ZNSt3__19allocatorImE8allocateB8ue170006Em, symObjAddr: 0xC04, symBinAddr: 0x1000035E0, symSize: 0x58 }
  - { offsetInCU: 0x7E75, offset: 0x7E75, size: 0x8, addend: 0x0, symName: __ZNSt3__117__compressed_pairIPmNS_9allocatorImEEE6secondB8ue170006Ev, symObjAddr: 0xCDC, symBinAddr: 0x1000036B8, symSize: 0x24 }
  - { offsetInCU: 0x7E99, offset: 0x7E99, size: 0x8, addend: 0x0, symName: __ZNSt3__122__compressed_pair_elemINS_9allocatorImEELi1ELb1EE5__getB8ue170006Ev, symObjAddr: 0xD00, symBinAddr: 0x1000036DC, symSize: 0x14 }
  - { offsetInCU: 0x7EBD, offset: 0x7EBD, size: 0x8, addend: 0x0, symName: __ZNSt3__117__compressed_pairIPmNS_9allocatorImEEE5firstB8ue170006Ev, symObjAddr: 0xD14, symBinAddr: 0x1000036F0, symSize: 0x24 }
  - { offsetInCU: 0x7EE1, offset: 0x7EE1, size: 0x8, addend: 0x0, symName: __ZNSt3__122__compressed_pair_elemIPmLi0ELb0EE5__getB8ue170006Ev, symObjAddr: 0xD38, symBinAddr: 0x100003714, symSize: 0x14 }
  - { offsetInCU: 0x7F05, offset: 0x7F05, size: 0x8, addend: 0x0, symName: __ZNKSt3__16vectorImNS_9allocatorImEEE31__annotate_contiguous_containerB8ue170006EPKvS5_S5_S5_, symObjAddr: 0xD4C, symBinAddr: 0x100003728, symSize: 0x20 }
  - { offsetInCU: 0x7F55, offset: 0x7F55, size: 0x8, addend: 0x0, symName: __ZNKSt3__16vectorImNS_9allocatorImEEE4dataB8ue170006Ev, symObjAddr: 0xD6C, symBinAddr: 0x100003748, symSize: 0x28 }
  - { offsetInCU: 0x7F79, offset: 0x7F79, size: 0x8, addend: 0x0, symName: __ZNKSt3__16vectorImNS_9allocatorImEEE8capacityB8ue170006Ev, symObjAddr: 0xD94, symBinAddr: 0x100003770, symSize: 0x40 }
  - { offsetInCU: 0x7F9D, offset: 0x7F9D, size: 0x8, addend: 0x0, symName: __ZNKSt3__16vectorImNS_9allocatorImEEE9__end_capB8ue170006Ev, symObjAddr: 0xDE8, symBinAddr: 0x1000037C4, symSize: 0x28 }
  - { offsetInCU: 0x7FC1, offset: 0x7FC1, size: 0x8, addend: 0x0, symName: __ZNKSt3__117__compressed_pairIPmNS_9allocatorImEEE5firstB8ue170006Ev, symObjAddr: 0xE10, symBinAddr: 0x1000037EC, symSize: 0x24 }
  - { offsetInCU: 0x7FE5, offset: 0x7FE5, size: 0x8, addend: 0x0, symName: __ZNKSt3__122__compressed_pair_elemIPmLi0ELb0EE5__getB8ue170006Ev, symObjAddr: 0xE34, symBinAddr: 0x100003810, symSize: 0x14 }
  - { offsetInCU: 0x8022, offset: 0x8022, size: 0x8, addend: 0x0, symName: __ZNSt3__16vectorImNS_9allocatorImEEE21_ConstructTransactionC1B8ue170006ERS3_m, symObjAddr: 0xE48, symBinAddr: 0x100003824, symSize: 0x3C }
  - { offsetInCU: 0x8068, offset: 0x8068, size: 0x8, addend: 0x0, symName: __ZNSt3__116allocator_traitsINS_9allocatorImEEE9constructB8ue170006ImJEvEEvRS2_PT_DpOT0_, symObjAddr: 0xE84, symBinAddr: 0x100003860, symSize: 0x2C }
  - { offsetInCU: 0x80A9, offset: 0x80A9, size: 0x8, addend: 0x0, symName: __ZNSt3__16vectorImNS_9allocatorImEEE21_ConstructTransactionD1B8ue170006Ev, symObjAddr: 0xEB0, symBinAddr: 0x10000388C, symSize: 0x2C }
  - { offsetInCU: 0x80D1, offset: 0x80D1, size: 0x8, addend: 0x0, symName: __ZNSt3__16vectorImNS_9allocatorImEEE21_ConstructTransactionC2B8ue170006ERS3_m, symObjAddr: 0xEDC, symBinAddr: 0x1000038B8, symSize: 0x44 }
  - { offsetInCU: 0x8117, offset: 0x8117, size: 0x8, addend: 0x0, symName: __ZNSt3__19allocatorImE9constructB8ue170006ImJEEEvPT_DpOT0_, symObjAddr: 0xF20, symBinAddr: 0x1000038FC, symSize: 0x1C }
  - { offsetInCU: 0x8157, offset: 0x8157, size: 0x8, addend: 0x0, symName: __ZNSt3__16vectorImNS_9allocatorImEEE21_ConstructTransactionD2B8ue170006Ev, symObjAddr: 0xF3C, symBinAddr: 0x100003918, symSize: 0x20 }
  - { offsetInCU: 0x817F, offset: 0x817F, size: 0x8, addend: 0x0, symName: __ZNSt3__128__exception_guard_exceptionsINS_6vectorImNS_9allocatorImEEE16__destroy_vectorEED2B8ue170006Ev, symObjAddr: 0xF5C, symBinAddr: 0x100003938, symSize: 0x50 }
  - { offsetInCU: 0x81A7, offset: 0x81A7, size: 0x8, addend: 0x0, symName: __ZNSt3__16vectorImNS_9allocatorImEEE16__destroy_vectorclB8ue170006Ev, symObjAddr: 0xFAC, symBinAddr: 0x100003988, symSize: 0x90 }
  - { offsetInCU: 0x81CB, offset: 0x81CB, size: 0x8, addend: 0x0, symName: __ZNSt3__16vectorImNS_9allocatorImEEE7__clearB8ue170006Ev, symObjAddr: 0x103C, symBinAddr: 0x100003A18, symSize: 0x28 }
  - { offsetInCU: 0x81EF, offset: 0x81EF, size: 0x8, addend: 0x0, symName: __ZNKSt3__16vectorImNS_9allocatorImEEE17__annotate_deleteB8ue170006Ev, symObjAddr: 0x1064, symBinAddr: 0x100003A40, symSize: 0xB8 }
  - { offsetInCU: 0x8213, offset: 0x8213, size: 0x8, addend: 0x0, symName: __ZNSt3__116allocator_traitsINS_9allocatorImEEE10deallocateB8ue170006ERS2_Pmm, symObjAddr: 0x111C, symBinAddr: 0x100003AF8, symSize: 0x34 }
  - { offsetInCU: 0x8254, offset: 0x8254, size: 0x8, addend: 0x0, symName: __ZNSt3__16vectorImNS_9allocatorImEEE22__base_destruct_at_endB8ue170006EPm, symObjAddr: 0x1150, symBinAddr: 0x100003B2C, symSize: 0x8C }
  - { offsetInCU: 0x8296, offset: 0x8296, size: 0x8, addend: 0x0, symName: __ZNSt3__116allocator_traitsINS_9allocatorImEEE7destroyB8ue170006ImvEEvRS2_PT_, symObjAddr: 0x11DC, symBinAddr: 0x100003BB8, symSize: 0x2C }
  - { offsetInCU: 0x82D2, offset: 0x82D2, size: 0x8, addend: 0x0, symName: __ZNSt3__19allocatorImE7destroyB8ue170006EPm, symObjAddr: 0x1208, symBinAddr: 0x100003BE4, symSize: 0x14 }
  - { offsetInCU: 0x8304, offset: 0x8304, size: 0x8, addend: 0x0, symName: __ZNSt3__19allocatorImE10deallocateB8ue170006EPmm, symObjAddr: 0x121C, symBinAddr: 0x100003BF8, symSize: 0x40 }
  - { offsetInCU: 0x8344, offset: 0x8344, size: 0x8, addend: 0x0, symName: __ZNSt3__16vectorImNS_9allocatorImEEED2B8ue170006Ev, symObjAddr: 0x12D8, symBinAddr: 0x100003CB4, symSize: 0x40 }
...
