---
triple:          'arm64-apple-darwin'
binary-path:     '/Users/raymond/Downloads/CS/USACO/usaco/Silver/Boredom'
relocations:
  - { offsetInCU: 0x49, offset: 0x49, size: 0x8, addend: 0x0, symName: __ZNSt3__1L19piecewise_constructE, symObjAddr: 0x35BC, symBinAddr: 0x100003CF0, symSize: 0x0 }
  - { offsetInCU: 0x73F3, offset: 0x73F3, size: 0x8, addend: 0x0, symName: __ZNSt3__13maxB8ue170006ImEERKT_S3_S3_, symObjAddr: 0x2F4, symBinAddr: 0x1000008E4, symSize: 0x2C }
  - { offsetInCU: 0x7436, offset: 0x7436, size: 0x8, addend: 0x0, symName: __ZNSt3__13maxB8ue170006ImNS_6__lessIvvEEEERKT_S5_S5_T0_, symObjAddr: 0x41C, symBinAddr: 0x100000A0C, symSize: 0x54 }
  - { offsetInCU: 0x7508, offset: 0x7508, size: 0x8, addend: 0x0, symName: __ZNSt3__119__libcpp_deallocateB8ue170006EPvmm, symObjAddr: 0xAEC, symBinAddr: 0x1000010DC, symSize: 0x30 }
  - { offsetInCU: 0x7550, offset: 0x7550, size: 0x8, addend: 0x0, symName: __ZNSt3__127__do_deallocate_handle_sizeB8ue170006IJEEEvPvmDpT_, symObjAddr: 0xB1C, symBinAddr: 0x10000110C, symSize: 0x28 }
  - { offsetInCU: 0x758E, offset: 0x758E, size: 0x8, addend: 0x0, symName: __ZNSt3__124__libcpp_operator_deleteB8ue170006IJPvEEEvDpT_, symObjAddr: 0xB44, symBinAddr: 0x100001134, symSize: 0x24 }
  - { offsetInCU: 0x75FA, offset: 0x75FA, size: 0x8, addend: 0x0, symName: __ZNSt3__116forward_as_tupleB8ue170006IJRKmEEENS_5tupleIJDpOT_EEES6_, symObjAddr: 0xCCC, symBinAddr: 0x1000012BC, symSize: 0x2C }
  - { offsetInCU: 0x7633, offset: 0x7633, size: 0x8, addend: 0x0, symName: __ZNSt3__116forward_as_tupleB8ue170006IJEEENS_5tupleIJDpOT_EEES4_, symObjAddr: 0xCF8, symBinAddr: 0x1000012E8, symSize: 0x4 }
  - { offsetInCU: 0x7675, offset: 0x7675, size: 0x8, addend: 0x0, symName: __ZNSt3__117__libcpp_allocateB8ue170006Emm, symObjAddr: 0x14F8, symBinAddr: 0x100001AE8, symSize: 0x28 }
  - { offsetInCU: 0x76B2, offset: 0x76B2, size: 0x8, addend: 0x0, symName: __ZNSt3__121__libcpp_operator_newB8ue170006IJmEEEPvDpT_, symObjAddr: 0x1538, symBinAddr: 0x100001B28, symSize: 0x24 }
  - { offsetInCU: 0x76F6, offset: 0x76F6, size: 0x8, addend: 0x0, symName: __ZNSt3__13getB8ue170006ILm0EJRKmEEERNS_13tuple_elementIXT_ENS_5tupleIJDpT0_EEEE4typeERS7_, symObjAddr: 0x17B4, symBinAddr: 0x100001DA4, symSize: 0x24 }
  - { offsetInCU: 0x7739, offset: 0x7739, size: 0x8, addend: 0x0, symName: __ZNSt3__127__tree_balance_after_insertB8ue170006IPNS_16__tree_node_baseIPvEEEEvT_S5_, symObjAddr: 0x1864, symBinAddr: 0x100001E54, symSize: 0x32C }
  - { offsetInCU: 0x77B5, offset: 0x77B5, size: 0x8, addend: 0x0, symName: __ZNSt3__120__tree_is_left_childB8ue170006IPNS_16__tree_node_baseIPvEEEEbT_, symObjAddr: 0x1BD0, symBinAddr: 0x1000021C0, symSize: 0x2C }
  - { offsetInCU: 0x77EA, offset: 0x77EA, size: 0x8, addend: 0x0, symName: __ZNSt3__118__tree_left_rotateB8ue170006IPNS_16__tree_node_baseIPvEEEEvT_, symObjAddr: 0x1BFC, symBinAddr: 0x1000021EC, symSize: 0xD8 }
  - { offsetInCU: 0x782C, offset: 0x782C, size: 0x8, addend: 0x0, symName: __ZNSt3__119__tree_right_rotateB8ue170006IPNS_16__tree_node_baseIPvEEEEvT_, symObjAddr: 0x1CD4, symBinAddr: 0x1000022C4, symSize: 0xCC }
  - { offsetInCU: 0x78C5, offset: 0x78C5, size: 0x8, addend: 0x0, symName: __ZNSt3__122__make_exception_guardB8ue170006INS_6vectorImNS_9allocatorImEEE16__destroy_vectorEEENS_28__exception_guard_exceptionsIT_EES7_, symObjAddr: 0x21F8, symBinAddr: 0x1000027E8, symSize: 0x40 }
  - { offsetInCU: 0x78FA, offset: 0x78FA, size: 0x8, addend: 0x0, symName: __ZNSt3__119__allocate_at_leastB8ue170006INS_9allocatorImEEEENS_19__allocation_resultINS_16allocator_traitsIT_E7pointerEEERS5_m, symObjAddr: 0x25EC, symBinAddr: 0x100002BDC, symSize: 0x40 }
  - { offsetInCU: 0x793D, offset: 0x793D, size: 0x8, addend: 0x0, symName: __ZNSt3__13minB8ue170006ImEERKT_S3_S3_, symObjAddr: 0x2728, symBinAddr: 0x100002D18, symSize: 0x2C }
  - { offsetInCU: 0x7B81, offset: 0x7B81, size: 0x8, addend: 0x0, symName: __ZNSt3__13minB8ue170006ImNS_6__lessIvvEEEERKT_S5_S5_T0_, symObjAddr: 0x27B4, symBinAddr: 0x100002DA4, symSize: 0x54 }
  - { offsetInCU: 0x7BDB, offset: 0x7BDB, size: 0x8, addend: 0x0, symName: __ZNSt3__120__throw_length_errorB8ue170006EPKc, symObjAddr: 0x285C, symBinAddr: 0x100002E4C, symSize: 0x64 }
  - { offsetInCU: 0x7C05, offset: 0x7C05, size: 0x8, addend: 0x0, symName: __ZNSt3__112__to_addressB8ue170006ImEEPT_S2_, symObjAddr: 0x2A90, symBinAddr: 0x100003080, symSize: 0x14 }
  - { offsetInCU: 0x7C3A, offset: 0x7C3A, size: 0x8, addend: 0x0, symName: __ZNSt3__116forward_as_tupleB8ue170006IJmEEENS_5tupleIJDpOT_EEES4_, symObjAddr: 0x3094, symBinAddr: 0x100003684, symSize: 0x2C }
  - { offsetInCU: 0x7C73, offset: 0x7C73, size: 0x8, addend: 0x0, symName: __ZNSt3__13getB8ue170006ILm0EJOmEEERNS_13tuple_elementIXT_ENS_5tupleIJDpT0_EEEE4typeERS6_, symObjAddr: 0x3330, symBinAddr: 0x100003920, symSize: 0x24 }
  - { offsetInCU: 0x7F9A, offset: 0x7F9A, size: 0x8, addend: 0x0, symName: __ZSt28__throw_bad_array_new_lengthB8ue170006v, symObjAddr: 0x14C4, symBinAddr: 0x100001AB4, symSize: 0x34 }
  - { offsetInCU: 0xAC48, offset: 0xAC48, size: 0x8, addend: 0x0, symName: _main, symObjAddr: 0x0, symBinAddr: 0x1000005F0, symSize: 0x20C }
  - { offsetInCU: 0xACDA, offset: 0xACDA, size: 0x8, addend: 0x0, symName: __ZNSt3__13mapImmNS_4lessImEENS_9allocatorINS_4pairIKmmEEEEEC1B8ue170006Ev, symObjAddr: 0x20C, symBinAddr: 0x1000007FC, symSize: 0x2C }
  - { offsetInCU: 0xAD02, offset: 0xAD02, size: 0x8, addend: 0x0, symName: __ZNSt3__13mapImmNS_4lessImEENS_9allocatorINS_4pairIKmmEEEEEixERS5_, symObjAddr: 0x238, symBinAddr: 0x100000828, symSize: 0x80 }
  - { offsetInCU: 0xAD37, offset: 0xAD37, size: 0x8, addend: 0x0, symName: __ZNSt3__16vectorImNS_9allocatorImEEEC1EmRKm, symObjAddr: 0x2B8, symBinAddr: 0x1000008A8, symSize: 0x3C }
  - { offsetInCU: 0xAD80, offset: 0xAD80, size: 0x8, addend: 0x0, symName: __ZNSt3__16vectorImNS_9allocatorImEEEixB8ue170006Em, symObjAddr: 0x320, symBinAddr: 0x100000910, symSize: 0x24 }
  - { offsetInCU: 0xADB4, offset: 0xADB4, size: 0x8, addend: 0x0, symName: __ZNSt3__13mapImmNS_4lessImEENS_9allocatorINS_4pairIKmmEEEEEixEOm, symObjAddr: 0x344, symBinAddr: 0x100000934, symSize: 0x80 }
  - { offsetInCU: 0xADE9, offset: 0xADE9, size: 0x8, addend: 0x0, symName: __ZNSt3__16vectorImNS_9allocatorImEEED1B8ue170006Ev, symObjAddr: 0x3C4, symBinAddr: 0x1000009B4, symSize: 0x2C }
  - { offsetInCU: 0xAE11, offset: 0xAE11, size: 0x8, addend: 0x0, symName: __ZNSt3__13mapImmNS_4lessImEENS_9allocatorINS_4pairIKmmEEEEED1B8ue170006Ev, symObjAddr: 0x3F0, symBinAddr: 0x1000009E0, symSize: 0x2C }
  - { offsetInCU: 0xAE44, offset: 0xAE44, size: 0x8, addend: 0x0, symName: __ZNKSt3__16__lessIvvEclB8ue170006ImmEEbRKT_RKT0_, symObjAddr: 0x470, symBinAddr: 0x100000A60, symSize: 0x34 }
  - { offsetInCU: 0xAE96, offset: 0xAE96, size: 0x8, addend: 0x0, symName: __ZNSt3__13mapImmNS_4lessImEENS_9allocatorINS_4pairIKmmEEEEEC2B8ue170006Ev, symObjAddr: 0x4A4, symBinAddr: 0x100000A94, symSize: 0x40 }
  - { offsetInCU: 0xAEBE, offset: 0xAEBE, size: 0x8, addend: 0x0, symName: __ZNSt3__119__map_value_compareImNS_12__value_typeImmEENS_4lessImEELb1EEC1B8ue170006ES4_, symObjAddr: 0x4E4, symBinAddr: 0x100000AD4, symSize: 0x2C }
  - { offsetInCU: 0xAEF5, offset: 0xAEF5, size: 0x8, addend: 0x0, symName: __ZNSt3__16__treeINS_12__value_typeImmEENS_19__map_value_compareImS2_NS_4lessImEELb1EEENS_9allocatorIS2_EEEC1ERKS6_, symObjAddr: 0x510, symBinAddr: 0x100000B00, symSize: 0x34 }
  - { offsetInCU: 0xAF2F, offset: 0xAF2F, size: 0x8, addend: 0x0, symName: __ZNSt3__119__map_value_compareImNS_12__value_typeImmEENS_4lessImEELb1EEC2B8ue170006ES4_, symObjAddr: 0x544, symBinAddr: 0x100000B34, symSize: 0x14 }
  - { offsetInCU: 0xAF66, offset: 0xAF66, size: 0x8, addend: 0x0, symName: __ZNSt3__16__treeINS_12__value_typeImmEENS_19__map_value_compareImS2_NS_4lessImEELb1EEENS_9allocatorIS2_EEEC2ERKS6_, symObjAddr: 0x558, symBinAddr: 0x100000B48, symSize: 0x7C }
  - { offsetInCU: 0xAF9F, offset: 0xAF9F, size: 0x8, addend: 0x0, symName: __ZNSt3__117__compressed_pairINS_15__tree_end_nodeIPNS_16__tree_node_baseIPvEEEENS_9allocatorINS_11__tree_nodeINS_12__value_typeImmEES3_EEEEEC1B8ue170006ILb1EvEEv, symObjAddr: 0x5D4, symBinAddr: 0x100000BC4, symSize: 0x2C }
  - { offsetInCU: 0xAFD7, offset: 0xAFD7, size: 0x8, addend: 0x0, symName: __ZNSt3__117__compressed_pairImNS_19__map_value_compareImNS_12__value_typeImmEENS_4lessImEELb1EEEEC1B8ue170006IiRKS6_EEOT_OT0_, symObjAddr: 0x60C, symBinAddr: 0x100000BFC, symSize: 0x3C }
  - { offsetInCU: 0xB02E, offset: 0xB02E, size: 0x8, addend: 0x0, symName: __ZNSt3__16__treeINS_12__value_typeImmEENS_19__map_value_compareImS2_NS_4lessImEELb1EEENS_9allocatorIS2_EEE10__end_nodeB8ue170006Ev, symObjAddr: 0x648, symBinAddr: 0x100000C38, symSize: 0x2C }
  - { offsetInCU: 0xB053, offset: 0xB053, size: 0x8, addend: 0x0, symName: __ZNSt3__16__treeINS_12__value_typeImmEENS_19__map_value_compareImS2_NS_4lessImEELb1EEENS_9allocatorIS2_EEE12__begin_nodeB8ue170006Ev, symObjAddr: 0x674, symBinAddr: 0x100000C64, symSize: 0x14 }
  - { offsetInCU: 0xB077, offset: 0xB077, size: 0x8, addend: 0x0, symName: __ZNSt3__117__compressed_pairINS_15__tree_end_nodeIPNS_16__tree_node_baseIPvEEEENS_9allocatorINS_11__tree_nodeINS_12__value_typeImmEES3_EEEEEC2B8ue170006ILb1EvEEv, symObjAddr: 0x688, symBinAddr: 0x100000C78, symSize: 0x34 }
  - { offsetInCU: 0xB0AA, offset: 0xB0AA, size: 0x8, addend: 0x0, symName: __ZNSt3__122__compressed_pair_elemINS_15__tree_end_nodeIPNS_16__tree_node_baseIPvEEEELi0ELb0EEC2B8ue170006ENS_16__value_init_tagE, symObjAddr: 0x6BC, symBinAddr: 0x100000CAC, symSize: 0x2C }
  - { offsetInCU: 0xB0DD, offset: 0xB0DD, size: 0x8, addend: 0x0, symName: __ZNSt3__122__compressed_pair_elemINS_9allocatorINS_11__tree_nodeINS_12__value_typeImmEEPvEEEELi1ELb1EEC2B8ue170006ENS_16__value_init_tagE, symObjAddr: 0x6E8, symBinAddr: 0x100000CD8, symSize: 0x2C }
  - { offsetInCU: 0xB110, offset: 0xB110, size: 0x8, addend: 0x0, symName: __ZNSt3__115__tree_end_nodeIPNS_16__tree_node_baseIPvEEEC1B8ue170006Ev, symObjAddr: 0x714, symBinAddr: 0x100000D04, symSize: 0x2C }
  - { offsetInCU: 0xB139, offset: 0xB139, size: 0x8, addend: 0x0, symName: __ZNSt3__115__tree_end_nodeIPNS_16__tree_node_baseIPvEEEC2B8ue170006Ev, symObjAddr: 0x740, symBinAddr: 0x100000D30, symSize: 0x18 }
  - { offsetInCU: 0xB161, offset: 0xB161, size: 0x8, addend: 0x0, symName: __ZNSt3__19allocatorINS_11__tree_nodeINS_12__value_typeImmEEPvEEEC2B8ue170006Ev, symObjAddr: 0x758, symBinAddr: 0x100000D48, symSize: 0x2C }
  - { offsetInCU: 0xB18A, offset: 0xB18A, size: 0x8, addend: 0x0, symName: __ZNSt3__116__non_trivial_ifILb1ENS_9allocatorINS_11__tree_nodeINS_12__value_typeImmEEPvEEEEEC2B8ue170006Ev, symObjAddr: 0x784, symBinAddr: 0x100000D74, symSize: 0x14 }
  - { offsetInCU: 0xB1B2, offset: 0xB1B2, size: 0x8, addend: 0x0, symName: __ZNSt3__117__compressed_pairImNS_19__map_value_compareImNS_12__value_typeImmEENS_4lessImEELb1EEEEC2B8ue170006IiRKS6_EEOT_OT0_, symObjAddr: 0x798, symBinAddr: 0x100000D88, symSize: 0x44 }
  - { offsetInCU: 0xB209, offset: 0xB209, size: 0x8, addend: 0x0, symName: __ZNSt3__122__compressed_pair_elemImLi0ELb0EEC2B8ue170006IivEEOT_, symObjAddr: 0x7DC, symBinAddr: 0x100000DCC, symSize: 0x24 }
  - { offsetInCU: 0xB24A, offset: 0xB24A, size: 0x8, addend: 0x0, symName: __ZNSt3__122__compressed_pair_elemINS_19__map_value_compareImNS_12__value_typeImmEENS_4lessImEELb1EEELi1ELb1EEC2B8ue170006IRKS6_vEEOT_, symObjAddr: 0x800, symBinAddr: 0x100000DF0, symSize: 0x18 }
  - { offsetInCU: 0xB28B, offset: 0xB28B, size: 0x8, addend: 0x0, symName: __ZNSt3__114pointer_traitsIPNS_15__tree_end_nodeIPNS_16__tree_node_baseIPvEEEEE10pointer_toB8ue170006ERS6_, symObjAddr: 0x818, symBinAddr: 0x100000E08, symSize: 0x14 }
  - { offsetInCU: 0xB2AE, offset: 0xB2AE, size: 0x8, addend: 0x0, symName: __ZNSt3__117__compressed_pairINS_15__tree_end_nodeIPNS_16__tree_node_baseIPvEEEENS_9allocatorINS_11__tree_nodeINS_12__value_typeImmEES3_EEEEE5firstB8ue170006Ev, symObjAddr: 0x82C, symBinAddr: 0x100000E1C, symSize: 0x24 }
  - { offsetInCU: 0xB2D3, offset: 0xB2D3, size: 0x8, addend: 0x0, symName: __ZNSt3__122__compressed_pair_elemINS_15__tree_end_nodeIPNS_16__tree_node_baseIPvEEEELi0ELb0EE5__getB8ue170006Ev, symObjAddr: 0x850, symBinAddr: 0x100000E40, symSize: 0x14 }
  - { offsetInCU: 0xB2F7, offset: 0xB2F7, size: 0x8, addend: 0x0, symName: __ZNSt3__13mapImmNS_4lessImEENS_9allocatorINS_4pairIKmmEEEEED2B8ue170006Ev, symObjAddr: 0x864, symBinAddr: 0x100000E54, symSize: 0x2C }
  - { offsetInCU: 0xB31F, offset: 0xB31F, size: 0x8, addend: 0x0, symName: __ZNSt3__16__treeINS_12__value_typeImmEENS_19__map_value_compareImS2_NS_4lessImEELb1EEENS_9allocatorIS2_EEED1Ev, symObjAddr: 0x890, symBinAddr: 0x100000E80, symSize: 0x2C }
  - { offsetInCU: 0xB349, offset: 0xB349, size: 0x8, addend: 0x0, symName: __ZNSt3__16__treeINS_12__value_typeImmEENS_19__map_value_compareImS2_NS_4lessImEELb1EEENS_9allocatorIS2_EEED2Ev, symObjAddr: 0x8BC, symBinAddr: 0x100000EAC, symSize: 0x38 }
  - { offsetInCU: 0xB373, offset: 0xB373, size: 0x8, addend: 0x0, symName: __ZNSt3__16__treeINS_12__value_typeImmEENS_19__map_value_compareImS2_NS_4lessImEELb1EEENS_9allocatorIS2_EEE7destroyEPNS_11__tree_nodeIS2_PvEE, symObjAddr: 0x8F4, symBinAddr: 0x100000EE4, symSize: 0xAC }
  - { offsetInCU: 0xB3BE, offset: 0xB3BE, size: 0x8, addend: 0x0, symName: __ZNKSt3__16__treeINS_12__value_typeImmEENS_19__map_value_compareImS2_NS_4lessImEELb1EEENS_9allocatorIS2_EEE6__rootB8ue170006Ev, symObjAddr: 0x9A0, symBinAddr: 0x100000F90, symSize: 0x28 }
  - { offsetInCU: 0xB3E3, offset: 0xB3E3, size: 0x8, addend: 0x0, symName: __ZNSt3__16__treeINS_12__value_typeImmEENS_19__map_value_compareImS2_NS_4lessImEELb1EEENS_9allocatorIS2_EEE12__node_allocB8ue170006Ev, symObjAddr: 0x9C8, symBinAddr: 0x100000FB8, symSize: 0x28 }
  - { offsetInCU: 0xB408, offset: 0xB408, size: 0x8, addend: 0x0, symName: __ZNSt3__116allocator_traitsINS_9allocatorINS_11__tree_nodeINS_12__value_typeImmEEPvEEEEE7destroyB8ue170006INS_4pairIKmmEEvvEEvRS7_PT_, symObjAddr: 0x9F0, symBinAddr: 0x100000FE0, symSize: 0x14 }
  - { offsetInCU: 0xB443, offset: 0xB443, size: 0x8, addend: 0x0, symName: __ZNSt3__122__tree_key_value_typesINS_12__value_typeImmEEE9__get_ptrB8ue170006ERS2_, symObjAddr: 0xA04, symBinAddr: 0x100000FF4, symSize: 0x24 }
  - { offsetInCU: 0xB467, offset: 0xB467, size: 0x8, addend: 0x0, symName: __ZNSt3__116allocator_traitsINS_9allocatorINS_11__tree_nodeINS_12__value_typeImmEEPvEEEEE10deallocateB8ue170006ERS7_PS6_m, symObjAddr: 0xA28, symBinAddr: 0x100001018, symSize: 0x34 }
  - { offsetInCU: 0xB4A9, offset: 0xB4A9, size: 0x8, addend: 0x0, symName: __ZNSt3__117__compressed_pairINS_15__tree_end_nodeIPNS_16__tree_node_baseIPvEEEENS_9allocatorINS_11__tree_nodeINS_12__value_typeImmEES3_EEEEE6secondB8ue170006Ev, symObjAddr: 0xA5C, symBinAddr: 0x10000104C, symSize: 0x24 }
  - { offsetInCU: 0xB4CE, offset: 0xB4CE, size: 0x8, addend: 0x0, symName: __ZNSt3__122__compressed_pair_elemINS_9allocatorINS_11__tree_nodeINS_12__value_typeImmEEPvEEEELi1ELb1EE5__getB8ue170006Ev, symObjAddr: 0xA80, symBinAddr: 0x100001070, symSize: 0x14 }
  - { offsetInCU: 0xB4F3, offset: 0xB4F3, size: 0x8, addend: 0x0, symName: __ZNSt3__112__value_typeImmE11__get_valueB8ue170006Ev, symObjAddr: 0xA94, symBinAddr: 0x100001084, symSize: 0x14 }
  - { offsetInCU: 0xB518, offset: 0xB518, size: 0x8, addend: 0x0, symName: __ZNSt3__19allocatorINS_11__tree_nodeINS_12__value_typeImmEEPvEEE10deallocateB8ue170006EPS5_m, symObjAddr: 0xAA8, symBinAddr: 0x100001098, symSize: 0x44 }
  - { offsetInCU: 0xB559, offset: 0xB559, size: 0x8, addend: 0x0, symName: __ZNKSt3__16__treeINS_12__value_typeImmEENS_19__map_value_compareImS2_NS_4lessImEELb1EEENS_9allocatorIS2_EEE10__end_nodeB8ue170006Ev, symObjAddr: 0xB68, symBinAddr: 0x100001158, symSize: 0x2C }
  - { offsetInCU: 0xB57E, offset: 0xB57E, size: 0x8, addend: 0x0, symName: __ZNKSt3__117__compressed_pairINS_15__tree_end_nodeIPNS_16__tree_node_baseIPvEEEENS_9allocatorINS_11__tree_nodeINS_12__value_typeImmEES3_EEEEE5firstB8ue170006Ev, symObjAddr: 0xB94, symBinAddr: 0x100001184, symSize: 0x24 }
  - { offsetInCU: 0xB5A3, offset: 0xB5A3, size: 0x8, addend: 0x0, symName: __ZNKSt3__122__compressed_pair_elemINS_15__tree_end_nodeIPNS_16__tree_node_baseIPvEEEELi0ELb0EE5__getB8ue170006Ev, symObjAddr: 0xBB8, symBinAddr: 0x1000011A8, symSize: 0x14 }
  - { offsetInCU: 0xB5DB, offset: 0xB5DB, size: 0x8, addend: 0x0, symName: __ZNSt3__16__treeINS_12__value_typeImmEENS_19__map_value_compareImS2_NS_4lessImEELb1EEENS_9allocatorIS2_EEE25__emplace_unique_key_argsImJRKNS_21piecewise_construct_tENS_5tupleIJRKmEEENSE_IJEEEEEENS_4pairINS_15__tree_iteratorIS2_PNS_11__tree_nodeIS2_PvEElEEbEERKT_DpOT0_, symObjAddr: 0xBCC, symBinAddr: 0x1000011BC, symSize: 0x100 }
  - { offsetInCU: 0xB6B0, offset: 0xB6B0, size: 0x8, addend: 0x0, symName: __ZNKSt3__115__tree_iteratorINS_12__value_typeImmEEPNS_11__tree_nodeIS2_PvEElEptB8ue170006Ev, symObjAddr: 0xCFC, symBinAddr: 0x1000012EC, symSize: 0x2C }
  - { offsetInCU: 0xB6D4, offset: 0xB6D4, size: 0x8, addend: 0x0, symName: __ZNSt3__16__treeINS_12__value_typeImmEENS_19__map_value_compareImS2_NS_4lessImEELb1EEENS_9allocatorIS2_EEE12__find_equalImEERPNS_16__tree_node_baseIPvEERPNS_15__tree_end_nodeISE_EERKT_, symObjAddr: 0xD28, symBinAddr: 0x100001318, symSize: 0x184 }
  - { offsetInCU: 0xB73F, offset: 0xB73F, size: 0x8, addend: 0x0, symName: __ZNSt3__16__treeINS_12__value_typeImmEENS_19__map_value_compareImS2_NS_4lessImEELb1EEENS_9allocatorIS2_EEE16__construct_nodeIJRKNS_21piecewise_construct_tENS_5tupleIJRKmEEENSE_IJEEEEEENS_10unique_ptrINS_11__tree_nodeIS2_PvEENS_22__tree_node_destructorINS7_ISM_EEEEEEDpOT_, symObjAddr: 0xEAC, symBinAddr: 0x10000149C, symSize: 0x120 }
  - { offsetInCU: 0xB7C6, offset: 0xB7C6, size: 0x8, addend: 0x0, symName: __ZNSt3__16__treeINS_12__value_typeImmEENS_19__map_value_compareImS2_NS_4lessImEELb1EEENS_9allocatorIS2_EEE16__insert_node_atEPNS_15__tree_end_nodeIPNS_16__tree_node_baseIPvEEEERSE_SE_, symObjAddr: 0xFCC, symBinAddr: 0x1000015BC, symSize: 0xCC }
  - { offsetInCU: 0xB81A, offset: 0xB81A, size: 0x8, addend: 0x0, symName: __ZNKSt3__110unique_ptrINS_11__tree_nodeINS_12__value_typeImmEEPvEENS_22__tree_node_destructorINS_9allocatorIS5_EEEEE3getB8ue170006Ev, symObjAddr: 0x1098, symBinAddr: 0x100001688, symSize: 0x28 }
  - { offsetInCU: 0xB83F, offset: 0xB83F, size: 0x8, addend: 0x0, symName: __ZNSt3__110unique_ptrINS_11__tree_nodeINS_12__value_typeImmEEPvEENS_22__tree_node_destructorINS_9allocatorIS5_EEEEE7releaseB8ue170006Ev, symObjAddr: 0x10C0, symBinAddr: 0x1000016B0, symSize: 0x44 }
  - { offsetInCU: 0xB872, offset: 0xB872, size: 0x8, addend: 0x0, symName: __ZNSt3__110unique_ptrINS_11__tree_nodeINS_12__value_typeImmEEPvEENS_22__tree_node_destructorINS_9allocatorIS5_EEEEED1B8ue170006Ev, symObjAddr: 0x1104, symBinAddr: 0x1000016F4, symSize: 0x2C }
  - { offsetInCU: 0xB89A, offset: 0xB89A, size: 0x8, addend: 0x0, symName: __ZNSt3__115__tree_iteratorINS_12__value_typeImmEEPNS_11__tree_nodeIS2_PvEElEC1B8ue170006ES6_, symObjAddr: 0x1130, symBinAddr: 0x100001720, symSize: 0x34 }
  - { offsetInCU: 0xB8DB, offset: 0xB8DB, size: 0x8, addend: 0x0, symName: __ZNSt3__14pairINS_15__tree_iteratorINS_12__value_typeImmEEPNS_11__tree_nodeIS3_PvEElEEbEC1B8ue170006IS8_RbLS5_0EEEOT_OT0_, symObjAddr: 0x1164, symBinAddr: 0x100001754, symSize: 0x3C }
  - { offsetInCU: 0xB938, offset: 0xB938, size: 0x8, addend: 0x0, symName: __ZNKSt3__16__treeINS_12__value_typeImmEENS_19__map_value_compareImS2_NS_4lessImEELb1EEENS_9allocatorIS2_EEE10__root_ptrB8ue170006Ev, symObjAddr: 0x11A0, symBinAddr: 0x100001790, symSize: 0x24 }
  - { offsetInCU: 0xB95D, offset: 0xB95D, size: 0x8, addend: 0x0, symName: __ZNSt3__16__treeINS_12__value_typeImmEENS_19__map_value_compareImS2_NS_4lessImEELb1EEENS_9allocatorIS2_EEE10value_compB8ue170006Ev, symObjAddr: 0x11C4, symBinAddr: 0x1000017B4, symSize: 0x28 }
  - { offsetInCU: 0xB982, offset: 0xB982, size: 0x8, addend: 0x0, symName: __ZNKSt3__119__map_value_compareImNS_12__value_typeImmEENS_4lessImEELb1EEclB8ue170006ERKmRKS2_, symObjAddr: 0x11EC, symBinAddr: 0x1000017DC, symSize: 0x50 }
  - { offsetInCU: 0xB9C5, offset: 0xB9C5, size: 0x8, addend: 0x0, symName: __ZNKSt3__119__map_value_compareImNS_12__value_typeImmEENS_4lessImEELb1EEclB8ue170006ERKS2_RKm, symObjAddr: 0x123C, symBinAddr: 0x10000182C, symSize: 0x48 }
  - { offsetInCU: 0xBA08, offset: 0xBA08, size: 0x8, addend: 0x0, symName: __ZNSt3__117__compressed_pairImNS_19__map_value_compareImNS_12__value_typeImmEENS_4lessImEELb1EEEE6secondB8ue170006Ev, symObjAddr: 0x1284, symBinAddr: 0x100001874, symSize: 0x24 }
  - { offsetInCU: 0xBA2D, offset: 0xBA2D, size: 0x8, addend: 0x0, symName: __ZNSt3__122__compressed_pair_elemINS_19__map_value_compareImNS_12__value_typeImmEENS_4lessImEELb1EEELi1ELb1EE5__getB8ue170006Ev, symObjAddr: 0x12A8, symBinAddr: 0x100001898, symSize: 0x14 }
  - { offsetInCU: 0xBA52, offset: 0xBA52, size: 0x8, addend: 0x0, symName: __ZNKSt3__14lessImEclB8ue170006ERKmS3_, symObjAddr: 0x12BC, symBinAddr: 0x1000018AC, symSize: 0x34 }
  - { offsetInCU: 0xBA95, offset: 0xBA95, size: 0x8, addend: 0x0, symName: __ZNKSt3__112__value_typeImmE11__get_valueB8ue170006Ev, symObjAddr: 0x12F0, symBinAddr: 0x1000018E0, symSize: 0x14 }
  - { offsetInCU: 0xBABA, offset: 0xBABA, size: 0x8, addend: 0x0, symName: __ZNSt3__116allocator_traitsINS_9allocatorINS_11__tree_nodeINS_12__value_typeImmEEPvEEEEE8allocateB8ue170006ERS7_m, symObjAddr: 0x1304, symBinAddr: 0x1000018F4, symSize: 0x2C }
  - { offsetInCU: 0xBAEC, offset: 0xBAEC, size: 0x8, addend: 0x0, symName: __ZNSt3__122__tree_node_destructorINS_9allocatorINS_11__tree_nodeINS_12__value_typeImmEEPvEEEEEC1B8ue170006ERS7_b, symObjAddr: 0x1330, symBinAddr: 0x100001920, symSize: 0x48 }
  - { offsetInCU: 0xBB37, offset: 0xBB37, size: 0x8, addend: 0x0, symName: __ZNSt3__110unique_ptrINS_11__tree_nodeINS_12__value_typeImmEEPvEENS_22__tree_node_destructorINS_9allocatorIS5_EEEEEC1B8ue170006ILb1EvEEPS5_NS_16__dependent_typeINS_27__unique_ptr_deleter_sfinaeIS9_EEXT_EE20__good_rval_ref_typeE, symObjAddr: 0x1378, symBinAddr: 0x100001968, symSize: 0x3C }
  - { offsetInCU: 0xBB87, offset: 0xBB87, size: 0x8, addend: 0x0, symName: __ZNSt3__116allocator_traitsINS_9allocatorINS_11__tree_nodeINS_12__value_typeImmEEPvEEEEE9constructB8ue170006INS_4pairIKmmEEJRKNS_21piecewise_construct_tENS_5tupleIJRSB_EEENSG_IJEEEEvEEvRS7_PT_DpOT0_, symObjAddr: 0x13B4, symBinAddr: 0x1000019A4, symSize: 0x44 }
  - { offsetInCU: 0xBC06, offset: 0xBC06, size: 0x8, addend: 0x0, symName: __ZNKSt3__110unique_ptrINS_11__tree_nodeINS_12__value_typeImmEEPvEENS_22__tree_node_destructorINS_9allocatorIS5_EEEEEptB8ue170006Ev, symObjAddr: 0x13F8, symBinAddr: 0x1000019E8, symSize: 0x28 }
  - { offsetInCU: 0xBC2B, offset: 0xBC2B, size: 0x8, addend: 0x0, symName: __ZNSt3__110unique_ptrINS_11__tree_nodeINS_12__value_typeImmEEPvEENS_22__tree_node_destructorINS_9allocatorIS5_EEEEE11get_deleterB8ue170006Ev, symObjAddr: 0x1420, symBinAddr: 0x100001A10, symSize: 0x24 }
  - { offsetInCU: 0xBC50, offset: 0xBC50, size: 0x8, addend: 0x0, symName: __ZNSt3__19allocatorINS_11__tree_nodeINS_12__value_typeImmEEPvEEE8allocateB8ue170006Em, symObjAddr: 0x1444, symBinAddr: 0x100001A34, symSize: 0x5C }
  - { offsetInCU: 0xBC8D, offset: 0xBC8D, size: 0x8, addend: 0x0, symName: __ZNSt3__116allocator_traitsINS_9allocatorINS_11__tree_nodeINS_12__value_typeImmEEPvEEEEE8max_sizeB8ue170006IS7_vEEmRKS7_, symObjAddr: 0x14A0, symBinAddr: 0x100001A90, symSize: 0x24 }
  - { offsetInCU: 0xBCBB, offset: 0xBCBB, size: 0x8, addend: 0x0, symName: __ZNKSt3__19allocatorINS_11__tree_nodeINS_12__value_typeImmEEPvEEE8max_sizeB8ue170006Ev, symObjAddr: 0x1520, symBinAddr: 0x100001B10, symSize: 0x18 }
  - { offsetInCU: 0xBCE0, offset: 0xBCE0, size: 0x8, addend: 0x0, symName: __ZNSt3__122__tree_node_destructorINS_9allocatorINS_11__tree_nodeINS_12__value_typeImmEEPvEEEEEC2B8ue170006ERS7_b, symObjAddr: 0x155C, symBinAddr: 0x100001B4C, symSize: 0x38 }
  - { offsetInCU: 0xBD26, offset: 0xBD26, size: 0x8, addend: 0x0, symName: __ZNSt3__110unique_ptrINS_11__tree_nodeINS_12__value_typeImmEEPvEENS_22__tree_node_destructorINS_9allocatorIS5_EEEEEC2B8ue170006ILb1EvEEPS5_NS_16__dependent_typeINS_27__unique_ptr_deleter_sfinaeIS9_EEXT_EE20__good_rval_ref_typeE, symObjAddr: 0x1594, symBinAddr: 0x100001B84, symSize: 0x48 }
  - { offsetInCU: 0xBD75, offset: 0xBD75, size: 0x8, addend: 0x0, symName: __ZNSt3__117__compressed_pairIPNS_11__tree_nodeINS_12__value_typeImmEEPvEENS_22__tree_node_destructorINS_9allocatorIS5_EEEEEC1B8ue170006IRS6_SA_EEOT_OT0_, symObjAddr: 0x15DC, symBinAddr: 0x100001BCC, symSize: 0x3C }
  - { offsetInCU: 0xBDCB, offset: 0xBDCB, size: 0x8, addend: 0x0, symName: __ZNSt3__117__compressed_pairIPNS_11__tree_nodeINS_12__value_typeImmEEPvEENS_22__tree_node_destructorINS_9allocatorIS5_EEEEEC2B8ue170006IRS6_SA_EEOT_OT0_, symObjAddr: 0x1618, symBinAddr: 0x100001C08, symSize: 0x48 }
  - { offsetInCU: 0xBE22, offset: 0xBE22, size: 0x8, addend: 0x0, symName: __ZNSt3__122__compressed_pair_elemIPNS_11__tree_nodeINS_12__value_typeImmEEPvEELi0ELb0EEC2B8ue170006IRS6_vEEOT_, symObjAddr: 0x1660, symBinAddr: 0x100001C50, symSize: 0x24 }
  - { offsetInCU: 0xBE63, offset: 0xBE63, size: 0x8, addend: 0x0, symName: __ZNSt3__122__compressed_pair_elemINS_22__tree_node_destructorINS_9allocatorINS_11__tree_nodeINS_12__value_typeImmEEPvEEEEEELi1ELb0EEC2B8ue170006IS9_vEEOT_, symObjAddr: 0x1684, symBinAddr: 0x100001C74, symSize: 0x24 }
  - { offsetInCU: 0xBEA4, offset: 0xBEA4, size: 0x8, addend: 0x0, symName: __ZNSt3__19allocatorINS_11__tree_nodeINS_12__value_typeImmEEPvEEE9constructB8ue170006INS_4pairIKmmEEJRKNS_21piecewise_construct_tENS_5tupleIJRS9_EEENSE_IJEEEEEEvPT_DpOT0_, symObjAddr: 0x16A8, symBinAddr: 0x100001C98, symSize: 0x44 }
  - { offsetInCU: 0xBF1E, offset: 0xBF1E, size: 0x8, addend: 0x0, symName: __ZNSt3__14pairIKmmEC1B8ue170006IJRS1_EJEEENS_21piecewise_construct_tENS_5tupleIJDpT_EEENS6_IJDpT0_EEE, symObjAddr: 0x16EC, symBinAddr: 0x100001CDC, symSize: 0x44 }
  - { offsetInCU: 0xBF84, offset: 0xBF84, size: 0x8, addend: 0x0, symName: __ZNSt3__14pairIKmmEC1B8ue170006IJRS1_EJEJLm0EEJEEENS_21piecewise_construct_tERNS_5tupleIJDpT_EEERNS6_IJDpT0_EEENS_15__tuple_indicesIJXspT1_EEEENSF_IJXspT2_EEEE, symObjAddr: 0x1730, symBinAddr: 0x100001D20, symSize: 0x3C }
  - { offsetInCU: 0xC013, offset: 0xC013, size: 0x8, addend: 0x0, symName: __ZNSt3__14pairIKmmEC2B8ue170006IJRS1_EJEJLm0EEJEEENS_21piecewise_construct_tERNS_5tupleIJDpT_EEERNS6_IJDpT0_EEENS_15__tuple_indicesIJXspT1_EEEENSF_IJXspT2_EEEE, symObjAddr: 0x176C, symBinAddr: 0x100001D5C, symSize: 0x48 }
  - { offsetInCU: 0xC0A2, offset: 0xC0A2, size: 0x8, addend: 0x0, symName: __ZNSt3__112__tuple_leafILm0ERKmLb0EE3getB8ue170006Ev, symObjAddr: 0x17D8, symBinAddr: 0x100001DC8, symSize: 0x18 }
  - { offsetInCU: 0xC0C7, offset: 0xC0C7, size: 0x8, addend: 0x0, symName: __ZNKSt3__117__compressed_pairIPNS_11__tree_nodeINS_12__value_typeImmEEPvEENS_22__tree_node_destructorINS_9allocatorIS5_EEEEE5firstB8ue170006Ev, symObjAddr: 0x17F0, symBinAddr: 0x100001DE0, symSize: 0x24 }
  - { offsetInCU: 0xC0EC, offset: 0xC0EC, size: 0x8, addend: 0x0, symName: __ZNKSt3__122__compressed_pair_elemIPNS_11__tree_nodeINS_12__value_typeImmEEPvEELi0ELb0EE5__getB8ue170006Ev, symObjAddr: 0x1814, symBinAddr: 0x100001E04, symSize: 0x14 }
  - { offsetInCU: 0xC111, offset: 0xC111, size: 0x8, addend: 0x0, symName: __ZNSt3__117__compressed_pairIPNS_11__tree_nodeINS_12__value_typeImmEEPvEENS_22__tree_node_destructorINS_9allocatorIS5_EEEEE6secondB8ue170006Ev, symObjAddr: 0x1828, symBinAddr: 0x100001E18, symSize: 0x28 }
  - { offsetInCU: 0xC136, offset: 0xC136, size: 0x8, addend: 0x0, symName: __ZNSt3__122__compressed_pair_elemINS_22__tree_node_destructorINS_9allocatorINS_11__tree_nodeINS_12__value_typeImmEEPvEEEEEELi1ELb0EE5__getB8ue170006Ev, symObjAddr: 0x1850, symBinAddr: 0x100001E40, symSize: 0x14 }
  - { offsetInCU: 0xC15B, offset: 0xC15B, size: 0x8, addend: 0x0, symName: __ZNSt3__16__treeINS_12__value_typeImmEENS_19__map_value_compareImS2_NS_4lessImEELb1EEENS_9allocatorIS2_EEE4sizeB8ue170006Ev, symObjAddr: 0x1B90, symBinAddr: 0x100002180, symSize: 0x28 }
  - { offsetInCU: 0xC180, offset: 0xC180, size: 0x8, addend: 0x0, symName: __ZNKSt3__116__tree_node_baseIPvE15__parent_unsafeB8ue170006Ev, symObjAddr: 0x1BB8, symBinAddr: 0x1000021A8, symSize: 0x18 }
  - { offsetInCU: 0xC1A5, offset: 0xC1A5, size: 0x8, addend: 0x0, symName: __ZNSt3__116__tree_node_baseIPvE12__set_parentB8ue170006EPS2_, symObjAddr: 0x1DA0, symBinAddr: 0x100002390, symSize: 0x20 }
  - { offsetInCU: 0xC1D9, offset: 0xC1D9, size: 0x8, addend: 0x0, symName: __ZNSt3__117__compressed_pairImNS_19__map_value_compareImNS_12__value_typeImmEENS_4lessImEELb1EEEE5firstB8ue170006Ev, symObjAddr: 0x1DC0, symBinAddr: 0x1000023B0, symSize: 0x24 }
  - { offsetInCU: 0xC1FE, offset: 0xC1FE, size: 0x8, addend: 0x0, symName: __ZNSt3__122__compressed_pair_elemImLi0ELb0EE5__getB8ue170006Ev, symObjAddr: 0x1DE4, symBinAddr: 0x1000023D4, symSize: 0x14 }
  - { offsetInCU: 0xC223, offset: 0xC223, size: 0x8, addend: 0x0, symName: __ZNSt3__117__compressed_pairIPNS_11__tree_nodeINS_12__value_typeImmEEPvEENS_22__tree_node_destructorINS_9allocatorIS5_EEEEE5firstB8ue170006Ev, symObjAddr: 0x1DF8, symBinAddr: 0x1000023E8, symSize: 0x24 }
  - { offsetInCU: 0xC248, offset: 0xC248, size: 0x8, addend: 0x0, symName: __ZNSt3__122__compressed_pair_elemIPNS_11__tree_nodeINS_12__value_typeImmEEPvEELi0ELb0EE5__getB8ue170006Ev, symObjAddr: 0x1E1C, symBinAddr: 0x10000240C, symSize: 0x14 }
  - { offsetInCU: 0xC26C, offset: 0xC26C, size: 0x8, addend: 0x0, symName: __ZNSt3__110unique_ptrINS_11__tree_nodeINS_12__value_typeImmEEPvEENS_22__tree_node_destructorINS_9allocatorIS5_EEEEED2B8ue170006Ev, symObjAddr: 0x1E30, symBinAddr: 0x100002420, symSize: 0x30 }
  - { offsetInCU: 0xC295, offset: 0xC295, size: 0x8, addend: 0x0, symName: __ZNSt3__110unique_ptrINS_11__tree_nodeINS_12__value_typeImmEEPvEENS_22__tree_node_destructorINS_9allocatorIS5_EEEEE5resetB8ue170006EPS5_, symObjAddr: 0x1E60, symBinAddr: 0x100002450, symSize: 0x78 }
  - { offsetInCU: 0xC2D8, offset: 0xC2D8, size: 0x8, addend: 0x0, symName: __ZNSt3__122__tree_node_destructorINS_9allocatorINS_11__tree_nodeINS_12__value_typeImmEEPvEEEEEclB8ue170006EPS6_, symObjAddr: 0x1ED8, symBinAddr: 0x1000024C8, symSize: 0x94 }
  - { offsetInCU: 0xC30C, offset: 0xC30C, size: 0x8, addend: 0x0, symName: __ZNSt3__115__tree_iteratorINS_12__value_typeImmEEPNS_11__tree_nodeIS2_PvEElEC2B8ue170006ES6_, symObjAddr: 0x1F6C, symBinAddr: 0x10000255C, symSize: 0x20 }
  - { offsetInCU: 0xC344, offset: 0xC344, size: 0x8, addend: 0x0, symName: __ZNSt3__14pairINS_15__tree_iteratorINS_12__value_typeImmEEPNS_11__tree_nodeIS3_PvEElEEbEC2B8ue170006IS8_RbLS5_0EEEOT_OT0_, symObjAddr: 0x1F8C, symBinAddr: 0x10000257C, symSize: 0x38 }
  - { offsetInCU: 0xC3A0, offset: 0xC3A0, size: 0x8, addend: 0x0, symName: __ZNSt3__15tupleIJRKmEEC1B8ue170006INS_4_AndELi0EEES2_, symObjAddr: 0x1FC4, symBinAddr: 0x1000025B4, symSize: 0x34 }
  - { offsetInCU: 0xC3E6, offset: 0xC3E6, size: 0x8, addend: 0x0, symName: __ZNSt3__15tupleIJRKmEEC2B8ue170006INS_4_AndELi0EEES2_, symObjAddr: 0x1FF8, symBinAddr: 0x1000025E8, symSize: 0x34 }
  - { offsetInCU: 0xC42C, offset: 0xC42C, size: 0x8, addend: 0x0, symName: __ZNSt3__112__tuple_implINS_15__tuple_indicesIJLm0EEEEJRKmEEC1B8ue170006IJLm0EEJS4_EJEJEJS4_EEENS1_IJXspT_EEEENS_13__tuple_typesIJDpT0_EEENS1_IJXspT1_EEEENS8_IJDpT2_EEEDpOT3_, symObjAddr: 0x202C, symBinAddr: 0x10000261C, symSize: 0x34 }
  - { offsetInCU: 0xC4BF, offset: 0xC4BF, size: 0x8, addend: 0x0, symName: __ZNSt3__112__tuple_implINS_15__tuple_indicesIJLm0EEEEJRKmEEC2B8ue170006IJLm0EEJS4_EJEJEJS4_EEENS1_IJXspT_EEEENS_13__tuple_typesIJDpT0_EEENS1_IJXspT1_EEEENS8_IJDpT2_EEEDpOT3_, symObjAddr: 0x2060, symBinAddr: 0x100002650, symSize: 0x34 }
  - { offsetInCU: 0xC553, offset: 0xC553, size: 0x8, addend: 0x0, symName: __ZNSt3__112__tuple_leafILm0ERKmLb0EEC2B8ue170006IS2_vEEOT_, symObjAddr: 0x2094, symBinAddr: 0x100002684, symSize: 0x20 }
  - { offsetInCU: 0xC595, offset: 0xC595, size: 0x8, addend: 0x0, symName: __ZNSt3__114pointer_traitsIPNS_12__value_typeImmEEE10pointer_toB8ue170006ERS2_, symObjAddr: 0x20B4, symBinAddr: 0x1000026A4, symSize: 0x14 }
  - { offsetInCU: 0xC5B8, offset: 0xC5B8, size: 0x8, addend: 0x0, symName: __ZNKSt3__115__tree_iteratorINS_12__value_typeImmEEPNS_11__tree_nodeIS2_PvEElE8__get_npB8ue170006Ev, symObjAddr: 0x20C8, symBinAddr: 0x1000026B8, symSize: 0x18 }
  - { offsetInCU: 0xC5DC, offset: 0xC5DC, size: 0x8, addend: 0x0, symName: __ZNSt3__16vectorImNS_9allocatorImEEEC2EmRKm, symObjAddr: 0x20E0, symBinAddr: 0x1000026D0, symSize: 0xDC }
  - { offsetInCU: 0xC643, offset: 0xC643, size: 0x8, addend: 0x0, symName: __ZNSt3__117__compressed_pairIPmNS_9allocatorImEEEC1B8ue170006IDnNS_18__default_init_tagEEEOT_OT0_, symObjAddr: 0x21BC, symBinAddr: 0x1000027AC, symSize: 0x3C }
  - { offsetInCU: 0xC699, offset: 0xC699, size: 0x8, addend: 0x0, symName: __ZNSt3__16vectorImNS_9allocatorImEEE16__destroy_vectorC1B8ue170006ERS3_, symObjAddr: 0x2238, symBinAddr: 0x100002828, symSize: 0x34 }
  - { offsetInCU: 0xC6D1, offset: 0xC6D1, size: 0x8, addend: 0x0, symName: __ZNSt3__16vectorImNS_9allocatorImEEE11__vallocateB8ue170006Em, symObjAddr: 0x226C, symBinAddr: 0x10000285C, symSize: 0xAC }
  - { offsetInCU: 0xC713, offset: 0xC713, size: 0x8, addend: 0x0, symName: __ZNSt3__16vectorImNS_9allocatorImEEE18__construct_at_endEmRKm, symObjAddr: 0x2318, symBinAddr: 0x100002908, symSize: 0xD0 }
  - { offsetInCU: 0xC793, offset: 0xC793, size: 0x8, addend: 0x0, symName: __ZNSt3__128__exception_guard_exceptionsINS_6vectorImNS_9allocatorImEEE16__destroy_vectorEE10__completeB8ue170006Ev, symObjAddr: 0x23E8, symBinAddr: 0x1000029D8, symSize: 0x1C }
  - { offsetInCU: 0xC7B7, offset: 0xC7B7, size: 0x8, addend: 0x0, symName: __ZNSt3__128__exception_guard_exceptionsINS_6vectorImNS_9allocatorImEEE16__destroy_vectorEED1B8ue170006Ev, symObjAddr: 0x2404, symBinAddr: 0x1000029F4, symSize: 0x2C }
  - { offsetInCU: 0xC7DF, offset: 0xC7DF, size: 0x8, addend: 0x0, symName: __ZNSt3__117__compressed_pairIPmNS_9allocatorImEEEC2B8ue170006IDnNS_18__default_init_tagEEEOT_OT0_, symObjAddr: 0x2430, symBinAddr: 0x100002A20, symSize: 0x40 }
  - { offsetInCU: 0xC836, offset: 0xC836, size: 0x8, addend: 0x0, symName: __ZNSt3__122__compressed_pair_elemIPmLi0ELb0EEC2B8ue170006IDnvEEOT_, symObjAddr: 0x2470, symBinAddr: 0x100002A60, symSize: 0x1C }
  - { offsetInCU: 0xC876, offset: 0xC876, size: 0x8, addend: 0x0, symName: __ZNSt3__122__compressed_pair_elemINS_9allocatorImEELi1ELb1EEC2B8ue170006ENS_18__default_init_tagE, symObjAddr: 0x248C, symBinAddr: 0x100002A7C, symSize: 0x2C }
  - { offsetInCU: 0xC8A9, offset: 0xC8A9, size: 0x8, addend: 0x0, symName: __ZNSt3__19allocatorImEC2B8ue170006Ev, symObjAddr: 0x24B8, symBinAddr: 0x100002AA8, symSize: 0x2C }
  - { offsetInCU: 0xC8D2, offset: 0xC8D2, size: 0x8, addend: 0x0, symName: __ZNSt3__116__non_trivial_ifILb1ENS_9allocatorImEEEC2B8ue170006Ev, symObjAddr: 0x24E4, symBinAddr: 0x100002AD4, symSize: 0x14 }
  - { offsetInCU: 0xC8FA, offset: 0xC8FA, size: 0x8, addend: 0x0, symName: __ZNSt3__128__exception_guard_exceptionsINS_6vectorImNS_9allocatorImEEE16__destroy_vectorEEC1B8ue170006ES5_, symObjAddr: 0x24F8, symBinAddr: 0x100002AE8, symSize: 0x34 }
  - { offsetInCU: 0xC931, offset: 0xC931, size: 0x8, addend: 0x0, symName: __ZNSt3__128__exception_guard_exceptionsINS_6vectorImNS_9allocatorImEEE16__destroy_vectorEEC2B8ue170006ES5_, symObjAddr: 0x252C, symBinAddr: 0x100002B1C, symSize: 0x24 }
  - { offsetInCU: 0xC968, offset: 0xC968, size: 0x8, addend: 0x0, symName: __ZNSt3__16vectorImNS_9allocatorImEEE16__destroy_vectorC2B8ue170006ERS3_, symObjAddr: 0x2550, symBinAddr: 0x100002B40, symSize: 0x20 }
  - { offsetInCU: 0xC99F, offset: 0xC99F, size: 0x8, addend: 0x0, symName: __ZNKSt3__16vectorImNS_9allocatorImEEE8max_sizeEv, symObjAddr: 0x2570, symBinAddr: 0x100002B60, symSize: 0x60 }
  - { offsetInCU: 0xC9C6, offset: 0xC9C6, size: 0x8, addend: 0x0, symName: __ZNKSt3__16vectorImNS_9allocatorImEEE20__throw_length_errorB8ue170006Ev, symObjAddr: 0x25D0, symBinAddr: 0x100002BC0, symSize: 0x1C }
  - { offsetInCU: 0xC9EB, offset: 0xC9EB, size: 0x8, addend: 0x0, symName: __ZNSt3__16vectorImNS_9allocatorImEEE7__allocB8ue170006Ev, symObjAddr: 0x262C, symBinAddr: 0x100002C1C, symSize: 0x28 }
  - { offsetInCU: 0xCA10, offset: 0xCA10, size: 0x8, addend: 0x0, symName: __ZNSt3__16vectorImNS_9allocatorImEEE9__end_capB8ue170006Ev, symObjAddr: 0x2654, symBinAddr: 0x100002C44, symSize: 0x28 }
  - { offsetInCU: 0xCA35, offset: 0xCA35, size: 0x8, addend: 0x0, symName: __ZNKSt3__16vectorImNS_9allocatorImEEE14__annotate_newB8ue170006Em, symObjAddr: 0x267C, symBinAddr: 0x100002C6C, symSize: 0xAC }
  - { offsetInCU: 0xCA73, offset: 0xCA73, size: 0x8, addend: 0x0, symName: __ZNSt3__116allocator_traitsINS_9allocatorImEEE8max_sizeB8ue170006IS2_vEEmRKS2_, symObjAddr: 0x2754, symBinAddr: 0x100002D44, symSize: 0x24 }
  - { offsetInCU: 0xCAA1, offset: 0xCAA1, size: 0x8, addend: 0x0, symName: __ZNKSt3__16vectorImNS_9allocatorImEEE7__allocB8ue170006Ev, symObjAddr: 0x2778, symBinAddr: 0x100002D68, symSize: 0x28 }
  - { offsetInCU: 0xCAC6, offset: 0xCAC6, size: 0x8, addend: 0x0, symName: __ZNSt3__114numeric_limitsIlE3maxB8ue170006Ev, symObjAddr: 0x27A0, symBinAddr: 0x100002D90, symSize: 0x14 }
  - { offsetInCU: 0xCADA, offset: 0xCADA, size: 0x8, addend: 0x0, symName: __ZNKSt3__19allocatorImE8max_sizeB8ue170006Ev, symObjAddr: 0x2808, symBinAddr: 0x100002DF8, symSize: 0x14 }
  - { offsetInCU: 0xCAFF, offset: 0xCAFF, size: 0x8, addend: 0x0, symName: __ZNKSt3__117__compressed_pairIPmNS_9allocatorImEEE6secondB8ue170006Ev, symObjAddr: 0x281C, symBinAddr: 0x100002E0C, symSize: 0x24 }
  - { offsetInCU: 0xCB24, offset: 0xCB24, size: 0x8, addend: 0x0, symName: __ZNKSt3__122__compressed_pair_elemINS_9allocatorImEELi1ELb1EE5__getB8ue170006Ev, symObjAddr: 0x2840, symBinAddr: 0x100002E30, symSize: 0x14 }
  - { offsetInCU: 0xCB49, offset: 0xCB49, size: 0x8, addend: 0x0, symName: __ZNSt3__123__libcpp_numeric_limitsIlLb1EE3maxB8ue170006Ev, symObjAddr: 0x2854, symBinAddr: 0x100002E44, symSize: 0x8 }
  - { offsetInCU: 0xCB5C, offset: 0xCB5C, size: 0x8, addend: 0x0, symName: __ZNSt12length_errorC1B8ue170006EPKc, symObjAddr: 0x28C0, symBinAddr: 0x100002EB0, symSize: 0x34 }
  - { offsetInCU: 0xCB92, offset: 0xCB92, size: 0x8, addend: 0x0, symName: __ZNSt12length_errorC2B8ue170006EPKc, symObjAddr: 0x28F4, symBinAddr: 0x100002EE4, symSize: 0x4C }
  - { offsetInCU: 0xCBC9, offset: 0xCBC9, size: 0x8, addend: 0x0, symName: __ZNSt3__19allocatorImE8allocateB8ue170006Em, symObjAddr: 0x2940, symBinAddr: 0x100002F30, symSize: 0x58 }
  - { offsetInCU: 0xCBFC, offset: 0xCBFC, size: 0x8, addend: 0x0, symName: __ZNSt3__117__compressed_pairIPmNS_9allocatorImEEE6secondB8ue170006Ev, symObjAddr: 0x2998, symBinAddr: 0x100002F88, symSize: 0x24 }
  - { offsetInCU: 0xCC21, offset: 0xCC21, size: 0x8, addend: 0x0, symName: __ZNSt3__122__compressed_pair_elemINS_9allocatorImEELi1ELb1EE5__getB8ue170006Ev, symObjAddr: 0x29BC, symBinAddr: 0x100002FAC, symSize: 0x14 }
  - { offsetInCU: 0xCC46, offset: 0xCC46, size: 0x8, addend: 0x0, symName: __ZNSt3__117__compressed_pairIPmNS_9allocatorImEEE5firstB8ue170006Ev, symObjAddr: 0x29D0, symBinAddr: 0x100002FC0, symSize: 0x24 }
  - { offsetInCU: 0xCC6B, offset: 0xCC6B, size: 0x8, addend: 0x0, symName: __ZNSt3__122__compressed_pair_elemIPmLi0ELb0EE5__getB8ue170006Ev, symObjAddr: 0x29F4, symBinAddr: 0x100002FE4, symSize: 0x14 }
  - { offsetInCU: 0xCC90, offset: 0xCC90, size: 0x8, addend: 0x0, symName: __ZNKSt3__16vectorImNS_9allocatorImEEE31__annotate_contiguous_containerB8ue170006EPKvS5_S5_S5_, symObjAddr: 0x2A08, symBinAddr: 0x100002FF8, symSize: 0x20 }
  - { offsetInCU: 0xCCE5, offset: 0xCCE5, size: 0x8, addend: 0x0, symName: __ZNKSt3__16vectorImNS_9allocatorImEEE4dataB8ue170006Ev, symObjAddr: 0x2A28, symBinAddr: 0x100003018, symSize: 0x28 }
  - { offsetInCU: 0xCD0A, offset: 0xCD0A, size: 0x8, addend: 0x0, symName: __ZNKSt3__16vectorImNS_9allocatorImEEE8capacityB8ue170006Ev, symObjAddr: 0x2A50, symBinAddr: 0x100003040, symSize: 0x40 }
  - { offsetInCU: 0xCD2F, offset: 0xCD2F, size: 0x8, addend: 0x0, symName: __ZNKSt3__16vectorImNS_9allocatorImEEE9__end_capB8ue170006Ev, symObjAddr: 0x2AA4, symBinAddr: 0x100003094, symSize: 0x28 }
  - { offsetInCU: 0xCD54, offset: 0xCD54, size: 0x8, addend: 0x0, symName: __ZNKSt3__117__compressed_pairIPmNS_9allocatorImEEE5firstB8ue170006Ev, symObjAddr: 0x2ACC, symBinAddr: 0x1000030BC, symSize: 0x24 }
  - { offsetInCU: 0xCD79, offset: 0xCD79, size: 0x8, addend: 0x0, symName: __ZNKSt3__122__compressed_pair_elemIPmLi0ELb0EE5__getB8ue170006Ev, symObjAddr: 0x2AF0, symBinAddr: 0x1000030E0, symSize: 0x14 }
  - { offsetInCU: 0xCDB6, offset: 0xCDB6, size: 0x8, addend: 0x0, symName: __ZNSt3__16vectorImNS_9allocatorImEEE21_ConstructTransactionC1B8ue170006ERS3_m, symObjAddr: 0x2B04, symBinAddr: 0x1000030F4, symSize: 0x3C }
  - { offsetInCU: 0xCDFD, offset: 0xCDFD, size: 0x8, addend: 0x0, symName: __ZNSt3__116allocator_traitsINS_9allocatorImEEE9constructB8ue170006ImJRKmEvEEvRS2_PT_DpOT0_, symObjAddr: 0x2B40, symBinAddr: 0x100003130, symSize: 0x34 }
  - { offsetInCU: 0xCE53, offset: 0xCE53, size: 0x8, addend: 0x0, symName: __ZNSt3__16vectorImNS_9allocatorImEEE21_ConstructTransactionD1B8ue170006Ev, symObjAddr: 0x2B74, symBinAddr: 0x100003164, symSize: 0x2C }
  - { offsetInCU: 0xCE7C, offset: 0xCE7C, size: 0x8, addend: 0x0, symName: __ZNSt3__16vectorImNS_9allocatorImEEE21_ConstructTransactionC2B8ue170006ERS3_m, symObjAddr: 0x2BA0, symBinAddr: 0x100003190, symSize: 0x44 }
  - { offsetInCU: 0xCEC3, offset: 0xCEC3, size: 0x8, addend: 0x0, symName: __ZNSt3__19allocatorImE9constructB8ue170006ImJRKmEEEvPT_DpOT0_, symObjAddr: 0x2BE4, symBinAddr: 0x1000031D4, symSize: 0x28 }
  - { offsetInCU: 0xCF18, offset: 0xCF18, size: 0x8, addend: 0x0, symName: __ZNSt3__16vectorImNS_9allocatorImEEE21_ConstructTransactionD2B8ue170006Ev, symObjAddr: 0x2C0C, symBinAddr: 0x1000031FC, symSize: 0x20 }
  - { offsetInCU: 0xCF40, offset: 0xCF40, size: 0x8, addend: 0x0, symName: __ZNSt3__128__exception_guard_exceptionsINS_6vectorImNS_9allocatorImEEE16__destroy_vectorEED2B8ue170006Ev, symObjAddr: 0x2C2C, symBinAddr: 0x10000321C, symSize: 0x50 }
  - { offsetInCU: 0xCF69, offset: 0xCF69, size: 0x8, addend: 0x0, symName: __ZNSt3__16vectorImNS_9allocatorImEEE16__destroy_vectorclB8ue170006Ev, symObjAddr: 0x2C7C, symBinAddr: 0x10000326C, symSize: 0x90 }
  - { offsetInCU: 0xCF8E, offset: 0xCF8E, size: 0x8, addend: 0x0, symName: __ZNSt3__16vectorImNS_9allocatorImEEE7__clearB8ue170006Ev, symObjAddr: 0x2D0C, symBinAddr: 0x1000032FC, symSize: 0x28 }
  - { offsetInCU: 0xCFB3, offset: 0xCFB3, size: 0x8, addend: 0x0, symName: __ZNKSt3__16vectorImNS_9allocatorImEEE17__annotate_deleteB8ue170006Ev, symObjAddr: 0x2D34, symBinAddr: 0x100003324, symSize: 0xB8 }
  - { offsetInCU: 0xCFD8, offset: 0xCFD8, size: 0x8, addend: 0x0, symName: __ZNSt3__116allocator_traitsINS_9allocatorImEEE10deallocateB8ue170006ERS2_Pmm, symObjAddr: 0x2DEC, symBinAddr: 0x1000033DC, symSize: 0x34 }
  - { offsetInCU: 0xD01A, offset: 0xD01A, size: 0x8, addend: 0x0, symName: __ZNSt3__16vectorImNS_9allocatorImEEE22__base_destruct_at_endB8ue170006EPm, symObjAddr: 0x2E20, symBinAddr: 0x100003410, symSize: 0x8C }
  - { offsetInCU: 0xD05D, offset: 0xD05D, size: 0x8, addend: 0x0, symName: __ZNSt3__116allocator_traitsINS_9allocatorImEEE7destroyB8ue170006ImvEEvRS2_PT_, symObjAddr: 0x2EAC, symBinAddr: 0x10000349C, symSize: 0x2C }
  - { offsetInCU: 0xD09A, offset: 0xD09A, size: 0x8, addend: 0x0, symName: __ZNSt3__19allocatorImE7destroyB8ue170006EPm, symObjAddr: 0x2ED8, symBinAddr: 0x1000034C8, symSize: 0x14 }
  - { offsetInCU: 0xD0CD, offset: 0xD0CD, size: 0x8, addend: 0x0, symName: __ZNKSt3__16vectorImNS_9allocatorImEEE4sizeB8ue170006Ev, symObjAddr: 0x2EEC, symBinAddr: 0x1000034DC, symSize: 0x28 }
  - { offsetInCU: 0xD0F2, offset: 0xD0F2, size: 0x8, addend: 0x0, symName: __ZNSt3__19allocatorImE10deallocateB8ue170006EPmm, symObjAddr: 0x2F14, symBinAddr: 0x100003504, symSize: 0x40 }
  - { offsetInCU: 0xD132, offset: 0xD132, size: 0x8, addend: 0x0, symName: __ZNSt3__16vectorImNS_9allocatorImEEED2B8ue170006Ev, symObjAddr: 0x2F54, symBinAddr: 0x100003544, symSize: 0x40 }
  - { offsetInCU: 0xD15A, offset: 0xD15A, size: 0x8, addend: 0x0, symName: __ZNSt3__16__treeINS_12__value_typeImmEENS_19__map_value_compareImS2_NS_4lessImEELb1EEENS_9allocatorIS2_EEE25__emplace_unique_key_argsImJRKNS_21piecewise_construct_tENS_5tupleIJOmEEENSE_IJEEEEEENS_4pairINS_15__tree_iteratorIS2_PNS_11__tree_nodeIS2_PvEElEEbEERKT_DpOT0_, symObjAddr: 0x2F94, symBinAddr: 0x100003584, symSize: 0x100 }
  - { offsetInCU: 0xD22E, offset: 0xD22E, size: 0x8, addend: 0x0, symName: __ZNSt3__16__treeINS_12__value_typeImmEENS_19__map_value_compareImS2_NS_4lessImEELb1EEENS_9allocatorIS2_EEE16__construct_nodeIJRKNS_21piecewise_construct_tENS_5tupleIJOmEEENSE_IJEEEEEENS_10unique_ptrINS_11__tree_nodeIS2_PvEENS_22__tree_node_destructorINS7_ISL_EEEEEEDpOT_, symObjAddr: 0x30C0, symBinAddr: 0x1000036B0, symSize: 0x120 }
  - { offsetInCU: 0xD2B6, offset: 0xD2B6, size: 0x8, addend: 0x0, symName: __ZNSt3__116allocator_traitsINS_9allocatorINS_11__tree_nodeINS_12__value_typeImmEEPvEEEEE9constructB8ue170006INS_4pairIKmmEEJRKNS_21piecewise_construct_tENS_5tupleIJOmEEENSG_IJEEEEvEEvRS7_PT_DpOT0_, symObjAddr: 0x31E0, symBinAddr: 0x1000037D0, symSize: 0x44 }
  - { offsetInCU: 0xD335, offset: 0xD335, size: 0x8, addend: 0x0, symName: __ZNSt3__19allocatorINS_11__tree_nodeINS_12__value_typeImmEEPvEEE9constructB8ue170006INS_4pairIKmmEEJRKNS_21piecewise_construct_tENS_5tupleIJOmEEENSE_IJEEEEEEvPT_DpOT0_, symObjAddr: 0x3224, symBinAddr: 0x100003814, symSize: 0x44 }
  - { offsetInCU: 0xD3AF, offset: 0xD3AF, size: 0x8, addend: 0x0, symName: __ZNSt3__14pairIKmmEC1B8ue170006IJOmEJEEENS_21piecewise_construct_tENS_5tupleIJDpT_EEENS6_IJDpT0_EEE, symObjAddr: 0x3268, symBinAddr: 0x100003858, symSize: 0x44 }
  - { offsetInCU: 0xD415, offset: 0xD415, size: 0x8, addend: 0x0, symName: __ZNSt3__14pairIKmmEC1B8ue170006IJOmEJEJLm0EEJEEENS_21piecewise_construct_tERNS_5tupleIJDpT_EEERNS6_IJDpT0_EEENS_15__tuple_indicesIJXspT1_EEEENSF_IJXspT2_EEEE, symObjAddr: 0x32AC, symBinAddr: 0x10000389C, symSize: 0x3C }
  - { offsetInCU: 0xD4A4, offset: 0xD4A4, size: 0x8, addend: 0x0, symName: __ZNSt3__14pairIKmmEC2B8ue170006IJOmEJEJLm0EEJEEENS_21piecewise_construct_tERNS_5tupleIJDpT_EEERNS6_IJDpT0_EEENS_15__tuple_indicesIJXspT1_EEEENSF_IJXspT2_EEEE, symObjAddr: 0x32E8, symBinAddr: 0x1000038D8, symSize: 0x48 }
  - { offsetInCU: 0xD533, offset: 0xD533, size: 0x8, addend: 0x0, symName: __ZNSt3__112__tuple_leafILm0EOmLb0EE3getB8ue170006Ev, symObjAddr: 0x3354, symBinAddr: 0x100003944, symSize: 0x18 }
  - { offsetInCU: 0xD557, offset: 0xD557, size: 0x8, addend: 0x0, symName: __ZNSt3__15tupleIJOmEEC1B8ue170006IJmELi0EEEDpOT_, symObjAddr: 0x336C, symBinAddr: 0x10000395C, symSize: 0x34 }
  - { offsetInCU: 0xD59F, offset: 0xD59F, size: 0x8, addend: 0x0, symName: __ZNSt3__15tupleIJOmEEC2B8ue170006IJmELi0EEEDpOT_, symObjAddr: 0x33A0, symBinAddr: 0x100003990, symSize: 0x34 }
  - { offsetInCU: 0xD5E7, offset: 0xD5E7, size: 0x8, addend: 0x0, symName: __ZNSt3__112__tuple_implINS_15__tuple_indicesIJLm0EEEEJOmEEC1B8ue170006IJLm0EEJS3_EJEJEJmEEENS1_IJXspT_EEEENS_13__tuple_typesIJDpT0_EEENS1_IJXspT1_EEEENS7_IJDpT2_EEEDpOT3_, symObjAddr: 0x33D4, symBinAddr: 0x1000039C4, symSize: 0x34 }
  - { offsetInCU: 0xD67A, offset: 0xD67A, size: 0x8, addend: 0x0, symName: __ZNSt3__112__tuple_implINS_15__tuple_indicesIJLm0EEEEJOmEEC2B8ue170006IJLm0EEJS3_EJEJEJmEEENS1_IJXspT_EEEENS_13__tuple_typesIJDpT0_EEENS1_IJXspT1_EEEENS7_IJDpT2_EEEDpOT3_, symObjAddr: 0x3408, symBinAddr: 0x1000039F8, symSize: 0x34 }
  - { offsetInCU: 0xD70E, offset: 0xD70E, size: 0x8, addend: 0x0, symName: __ZNSt3__112__tuple_leafILm0EOmLb0EEC2B8ue170006ImvEEOT_, symObjAddr: 0x343C, symBinAddr: 0x100003A2C, symSize: 0x20 }
...
